; Function Attrs: mustprogress nounwind uwtable
define dso_local void @_ZN4llvm12DIExpression12appendOffsetERNS_15SmallVectorImplImEEl(ptr noundef nonnull align 8 dereferenceable(16) %0, i64 noundef %1) local_unnamed_addr #0 align 2 {
  %3 = icmp sgt i64 %1, 0
  br i1 %3, label %4, label %18

4:                                                ; preds = %2
  %5 = tail call noundef i64 @_ZNK4llvm15SmallVectorBaseIjE4sizeEv(ptr noundef nonnull align 8 dereferenceable(16) %0) #24
  %6 = add i64 %5, 1
  %7 = tail call noundef i64 @_ZNK4llvm15SmallVectorBaseIjE8capacityEv(ptr noundef nonnull align 8 dereferenceable(16) %0) #24
  %.not.i.i.i = icmp ugt i64 %6, %7
  br i1 %.not.i.i.i, label %8, label %_ZN4llvm23SmallVectorTemplateBaseImLb1EE9push_backEm.exit

8:                                                ; preds = %4
  %9 = getelementptr inbounds i8, ptr %0, i64 16
  tail call void @_ZN4llvm15SmallVectorBaseIjE8grow_podEPvmm(ptr noundef nonnull align 8 dereferenceable(16) %0, ptr noundef nonnull %9, i64 noundef %6, i64 noundef 8) #24
  br label %_ZN4llvm23SmallVectorTemplateBaseImLb1EE9push_backEm.exit

_ZN4llvm23SmallVectorTemplateBaseImLb1EE9push_backEm.exit: ; preds = %4, %8
  %10 = load ptr, ptr %0, align 8
  %11 = tail call noundef i64 @_ZNK4llvm15SmallVectorBaseIjE4sizeEv(ptr noundef nonnull align 8 dereferenceable(16) %0) #24
  %12 = getelementptr inbounds i64, ptr %10, i64 %11
  store i64 35, ptr %12, align 1
  %13 = tail call noundef i64 @_ZNK4llvm15SmallVectorBaseIjE4sizeEv(ptr noundef nonnull align 8 dereferenceable(16) %0) #24
  %14 = add i64 %13, 1
  tail call void @_ZN4llvm15SmallVectorBaseIjE8set_sizeEm(ptr noundef nonnull align 8 dereferenceable(16) %0, i64 noundef %14) #24
  %15 = tail call noundef i64 @_ZNK4llvm15SmallVectorBaseIjE4sizeEv(ptr noundef nonnull align 8 dereferenceable(16) %0) #24
  %16 = add i64 %15, 1
  %17 = tail call noundef i64 @_ZNK4llvm15SmallVectorBaseIjE8capacityEv(ptr noundef nonnull align 8 dereferenceable(16) %0) #24
  %.not.i.i.i9 = icmp ugt i64 %16, %17
  br i1 %.not.i.i.i9, label %.sink.split.sink.split, label %.sink.split

18:                                               ; preds = %2
  %19 = icmp slt i64 %1, 0
  br i1 %19, label %20, label %51

20:                                               ; preds = %18
  %21 = tail call noundef i64 @_ZNK4llvm15SmallVectorBaseIjE4sizeEv(ptr noundef nonnull align 8 dereferenceable(16) %0) #24
  %22 = add i64 %21, 1
  %23 = tail call noundef i64 @_ZNK4llvm15SmallVectorBaseIjE8capacityEv(ptr noundef nonnull align 8 dereferenceable(16) %0) #24
  %.not.i.i.i11 = icmp ugt i64 %22, %23
  br i1 %.not.i.i.i11, label %24, label %_ZN4llvm23SmallVectorTemplateBaseImLb1EE9push_backEm.exit12

24:                                               ; preds = %20
  %25 = getelementptr inbounds i8, ptr %0, i64 16
  tail call void @_ZN4llvm15SmallVectorBaseIjE8grow_podEPvmm(ptr noundef nonnull align 8 dereferenceable(16) %0, ptr noundef nonnull %25, i64 noundef %22, i64 noundef 8) #24
  br label %_ZN4llvm23SmallVectorTemplateBaseImLb1EE9push_backEm.exit12

_ZN4llvm23SmallVectorTemplateBaseImLb1EE9push_backEm.exit12: ; preds = %20, %24
  %26 = load ptr, ptr %0, align 8
  %27 = tail call noundef i64 @_ZNK4llvm15SmallVectorBaseIjE4sizeEv(ptr noundef nonnull align 8 dereferenceable(16) %0) #24
  %28 = getelementptr inbounds i64, ptr %26, i64 %27
  store i64 16, ptr %28, align 1
  %29 = tail call noundef i64 @_ZNK4llvm15SmallVectorBaseIjE4sizeEv(ptr noundef nonnull align 8 dereferenceable(16) %0) #24
  %30 = add i64 %29, 1
  tail call void @_ZN4llvm15SmallVectorBaseIjE8set_sizeEm(ptr noundef nonnull align 8 dereferenceable(16) %0, i64 noundef %30) #24
  %31 = sub i64 0, %1
  %32 = tail call noundef i64 @_ZNK4llvm15SmallVectorBaseIjE4sizeEv(ptr noundef nonnull align 8 dereferenceable(16) %0) #24
  %33 = add i64 %32, 1
  %34 = tail call noundef i64 @_ZNK4llvm15SmallVectorBaseIjE8capacityEv(ptr noundef nonnull align 8 dereferenceable(16) %0) #24
  %.not.i.i.i13 = icmp ugt i64 %33, %34
  br i1 %.not.i.i.i13, label %35, label %_ZN4llvm23SmallVectorTemplateBaseImLb1EE9push_backEm.exit14

35:                                               ; preds = %_ZN4llvm23SmallVectorTemplateBaseImLb1EE9push_backEm.exit12
  %36 = getelementptr inbounds i8, ptr %0, i64 16
  tail call void @_ZN4llvm15SmallVectorBaseIjE8grow_podEPvmm(ptr noundef nonnull align 8 dereferenceable(16) %0, ptr noundef nonnull %36, i64 noundef %33, i64 noundef 8) #24
  br label %_ZN4llvm23SmallVectorTemplateBaseImLb1EE9push_backEm.exit14

_ZN4llvm23SmallVectorTemplateBaseImLb1EE9push_backEm.exit14: ; preds = %_ZN4llvm23SmallVectorTemplateBaseImLb1EE9push_backEm.exit12, %35
  %37 = load ptr, ptr %0, align 8
  %38 = tail call noundef i64 @_ZNK4llvm15SmallVectorBaseIjE4sizeEv(ptr noundef nonnull align 8 dereferenceable(16) %0) #24
  %39 = getelementptr inbounds i64, ptr %37, i64 %38
  store i64 %31, ptr %39, align 1
  %40 = tail call noundef i64 @_ZNK4llvm15SmallVectorBaseIjE4sizeEv(ptr noundef nonnull align 8 dereferenceable(16) %0) #24
  %41 = add i64 %40, 1
  tail call void @_ZN4llvm15SmallVectorBaseIjE8set_sizeEm(ptr noundef nonnull align 8 dereferenceable(16) %0, i64 noundef %41) #24
  %42 = tail call noundef i64 @_ZNK4llvm15SmallVectorBaseIjE4sizeEv(ptr noundef nonnull align 8 dereferenceable(16) %0) #24
  %43 = add i64 %42, 1
  %44 = tail call noundef i64 @_ZNK4llvm15SmallVectorBaseIjE8capacityEv(ptr noundef nonnull align 8 dereferenceable(16) %0) #24
  %.not.i.i.i15 = icmp ugt i64 %43, %44
  br i1 %.not.i.i.i15, label %.sink.split.sink.split, label %.sink.split

.sink.split.sink.split:                           ; preds = %_ZN4llvm23SmallVectorTemplateBaseImLb1EE9push_backEm.exit14, %_ZN4llvm23SmallVectorTemplateBaseImLb1EE9push_backEm.exit
  %.sink22 = phi i64 [ %16, %_ZN4llvm23SmallVectorTemplateBaseImLb1EE9push_backEm.exit ], [ %43, %_ZN4llvm23SmallVectorTemplateBaseImLb1EE9push_backEm.exit14 ]
  %.sink.ph = phi i64 [ %1, %_ZN4llvm23SmallVectorTemplateBaseImLb1EE9push_backEm.exit ], [ 28, %_ZN4llvm23SmallVectorTemplateBaseImLb1EE9push_backEm.exit14 ]
  %45 = getelementptr inbounds i8, ptr %0, i64 16
  tail call void @_ZN4llvm15SmallVectorBaseIjE8grow_podEPvmm(ptr noundef nonnull align 8 dereferenceable(16) %0, ptr noundef nonnull %45, i64 noundef %.sink22, i64 noundef 8) #24
  br label %.sink.split

.sink.split:                                      ; preds = %.sink.split.sink.split, %_ZN4llvm23SmallVectorTemplateBaseImLb1EE9push_backEm.exit14, %_ZN4llvm23SmallVectorTemplateBaseImLb1EE9push_backEm.exit
  %.sink = phi i64 [ %1, %_ZN4llvm23SmallVectorTemplateBaseImLb1EE9push_backEm.exit ], [ 28, %_ZN4llvm23SmallVectorTemplateBaseImLb1EE9push_backEm.exit14 ], [ %.sink.ph, %.sink.split.sink.split ]
  %46 = load ptr, ptr %0, align 8
  %47 = tail call noundef i64 @_ZNK4llvm15SmallVectorBaseIjE4sizeEv(ptr noundef nonnull align 8 dereferenceable(16) %0) #24
  %48 = getelementptr inbounds i64, ptr %46, i64 %47
  store i64 %.sink, ptr %48, align 1
  %49 = tail call noundef i64 @_ZNK4llvm15SmallVectorBaseIjE4sizeEv(ptr noundef nonnull align 8 dereferenceable(16) %0) #24
  %50 = add i64 %49, 1
  tail call void @_ZN4llvm15SmallVectorBaseIjE8set_sizeEm(ptr noundef nonnull align 8 dereferenceable(16) %0, i64 noundef %50) #24
  br label %51

51:                                               ; preds = %.sink.split, %18
  ret void
}